target datalayout = "e-m:e-p270:32:32-p271:32:32-p272:64:64-i64:64-i128:128-f80:128-n8:16:32:64-S128"
target triple = "x86_64-pc-linux-gnu"

%struct._fragment_head = type { ptr, ptr, i32, i32, i32, i32, i32, i32, i32, i8, i32, ptr, ptr }
%struct._fragment_item = type { ptr, i32, i32, i32, i32, ptr }

; Function Attrs: null_pointer_is_valid sspstrong uwtable
define internal i32 @free_all_fragments(ptr noundef %0, ptr noundef %1, ptr noundef %2) #1 {
  %4 = alloca ptr, align 8
  %5 = alloca ptr, align 8
  %6 = alloca ptr, align 8
  %7 = alloca ptr, align 8
  %8 = alloca ptr, align 8
  %9 = alloca ptr, align 8
  store ptr %0, ptr %4, align 8
  store ptr %1, ptr %5, align 8
  store ptr %2, ptr %6, align 8
  call void @llvm.lifetime.start.p0(i64 8, ptr %7) #16
  call void @llvm.lifetime.start.p0(i64 8, ptr %8) #16
  store ptr null, ptr %8, align 8
  call void @llvm.lifetime.start.p0(i64 8, ptr %9) #16
  %10 = load ptr, ptr %5, align 8
  store ptr %10, ptr %7, align 8
  %11 = load ptr, ptr %7, align 8
  %12 = icmp ne ptr %11, null
  br i1 %12, label %13, label %36

13:                                               ; preds = %3
  %14 = load ptr, ptr %7, align 8
  %15 = getelementptr inbounds nuw %struct._fragment_head, ptr %14, i32 0, i32 0
  %16 = load ptr, ptr %15, align 8
  store ptr %16, ptr %8, align 8
  %17 = load ptr, ptr %7, align 8
  %18 = getelementptr inbounds nuw %struct._fragment_head, ptr %17, i32 0, i32 11
  %19 = load ptr, ptr %18, align 8
  %20 = icmp ne ptr %19, null
  br i1 %20, label %21, label %31

21:                                               ; preds = %13
  %22 = load ptr, ptr %7, align 8
  %23 = getelementptr inbounds nuw %struct._fragment_head, ptr %22, i32 0, i32 10
  %24 = load i32, ptr %23, align 8
  %25 = and i32 %24, 32
  %26 = icmp ne i32 %25, 0
  br i1 %26, label %31, label %27

27:                                               ; preds = %21
  %28 = load ptr, ptr %7, align 8
  %29 = getelementptr inbounds nuw %struct._fragment_head, ptr %28, i32 0, i32 11
  %30 = load ptr, ptr %29, align 8
  call void @tvb_free(ptr noundef %30)
  br label %31

31:                                               ; preds = %27, %21, %13
  br label %32

32:                                               ; preds = %31
  %33 = load ptr, ptr %7, align 8
  call void @g_slice_free1(i64 noundef 72, ptr noundef %33)
  br label %34

34:                                               ; preds = %32
  br label %35

35:                                               ; preds = %34
  br label %36

36:                                               ; preds = %35, %3
  br label %37

37:                                               ; preds = %63, %36
  %38 = load ptr, ptr %8, align 8
  %39 = icmp ne ptr %38, null
  br i1 %39, label %40, label %65

40:                                               ; preds = %37
  %41 = load ptr, ptr %8, align 8
  %42 = getelementptr inbounds nuw %struct._fragment_item, ptr %41, i32 0, i32 0
  %43 = load ptr, ptr %42, align 8
  store ptr %43, ptr %9, align 8
  %44 = load ptr, ptr %8, align 8
  %45 = getelementptr inbounds nuw %struct._fragment_item, ptr %44, i32 0, i32 5
  %46 = load ptr, ptr %45, align 8
  %47 = icmp ne ptr %46, null
  br i1 %47, label %48, label %58

48:                                               ; preds = %40
  %49 = load ptr, ptr %8, align 8
  %50 = getelementptr inbounds nuw %struct._fragment_item, ptr %49, i32 0, i32 4
  %51 = load i32, ptr %50, align 4
  %52 = and i32 %51, 32
  %53 = icmp ne i32 %52, 0
  br i1 %53, label %58, label %54

54:                                               ; preds = %48
  %55 = load ptr, ptr %8, align 8
  %56 = getelementptr inbounds nuw %struct._fragment_item, ptr %55, i32 0, i32 5
  %57 = load ptr, ptr %56, align 8
  call void @tvb_free(ptr noundef %57)
  br label %58

58:                                               ; preds = %54, %48, %40
  br label %59

59:                                               ; preds = %58
  %60 = load ptr, ptr %8, align 8
  call void @g_slice_free1(i64 noundef 32, ptr noundef %60)
  br label %61

61:                                               ; preds = %59
  br label %62

62:                                               ; preds = %61
  br label %63

63:                                               ; preds = %62
  %64 = load ptr, ptr %9, align 8
  store ptr %64, ptr %8, align 8
  br label %37, !llvm.loop !6

65:                                               ; preds = %37
  call void @llvm.lifetime.end.p0(i64 8, ptr %9) #16
  call void @llvm.lifetime.end.p0(i64 8, ptr %8) #16
  call void @llvm.lifetime.end.p0(i64 8, ptr %7) #16
  ret i32 1
}