; Function Attrs: null_pointer_is_valid sspstrong uwtable
define internal noundef i32 @free_all_fragments(ptr readnone captures(none) %0, ptr noundef %1, ptr readnone captures(none) %2) #2 {
  %.not = icmp eq ptr %1, null
  br i1 %.not, label %._crit_edge, label %4

4:                                                ; preds = %3
  %5 = load ptr, ptr %1, align 8
  %6 = getelementptr inbounds nuw i8, ptr %1, i64 56
  %7 = load ptr, ptr %6, align 8
  %.not17 = icmp eq ptr %7, null
  br i1 %.not17, label %13, label %8

8:                                                ; preds = %4
  %9 = getelementptr inbounds nuw i8, ptr %1, i64 48
  %10 = load i32, ptr %9, align 8
  %11 = and i32 %10, 32
  %.not18 = icmp eq i32 %11, 0
  br i1 %.not18, label %12, label %13

12:                                               ; preds = %8
  tail call void @tvb_free(ptr noundef nonnull %7)
  br label %13

13:                                               ; preds = %12, %8, %4
  tail call void @g_slice_free1(i64 noundef 72, ptr noundef nonnull %1)
  %.not1922 = icmp eq ptr %5, null
  br i1 %.not1922, label %._crit_edge, label %.lr.ph

.lr.ph:                                           ; preds = %13, %22
  %.123 = phi ptr [ %14, %22 ], [ %5, %13 ]
  %14 = load ptr, ptr %.123, align 8
  %15 = getelementptr inbounds nuw i8, ptr %.123, i64 24
  %16 = load ptr, ptr %15, align 8
  %.not20 = icmp eq ptr %16, null
  br i1 %.not20, label %22, label %17

17:                                               ; preds = %.lr.ph
  %18 = getelementptr inbounds nuw i8, ptr %.123, i64 20
  %19 = load i32, ptr %18, align 4
  %20 = and i32 %19, 32
  %.not21 = icmp eq i32 %20, 0
  br i1 %.not21, label %21, label %22

21:                                               ; preds = %17
  tail call void @tvb_free(ptr noundef nonnull %16)
  br label %22

22:                                               ; preds = %.lr.ph, %17, %21
  tail call void @g_slice_free1(i64 noundef 32, ptr noundef nonnull %.123)
  %.not19 = icmp eq ptr %14, null
  br i1 %.not19, label %._crit_edge, label %.lr.ph, !llvm.loop !6

._crit_edge:                                      ; preds = %22, %3, %13
  ret i32 1
}